; Function Attrs: null_pointer_is_valid sspstrong uwtable
define internal void @dissect_r3_cmdmfg_setserialnumber(ptr noundef %0, i32 noundef %1, i32 %2, ptr noundef readonly captures(none) %3, ptr noundef %4) #0 {
  %6 = add i32 %1, 2
  %7 = tail call ptr @tvb_new_subset_length(ptr noundef %0, i32 noundef %6, i32 noundef 16)
  %.not = icmp eq ptr %4, null
  br i1 %.not, label %.split, label %.split13

.split:                                           ; preds = %5
  tail call void @tvb_ensure_bytes_exist(ptr noundef %7, i32 noundef 0, i32 noundef 16)
  br label %14

.split13:                                         ; preds = %5
  %8 = load i32, ptr @hf_r3_commandmfglength, align 4
  %9 = tail call ptr @proto_tree_add_item(ptr noundef nonnull %4, i32 noundef %8, ptr noundef %0, i32 noundef %1, i32 noundef 1, i32 noundef -2147483648)
  %10 = load i32, ptr @hf_r3_commandmfg, align 4
  %11 = add i32 %1, 1
  %12 = tail call ptr @proto_tree_add_item(ptr noundef nonnull %4, i32 noundef %10, ptr noundef %0, i32 noundef %11, i32 noundef 1, i32 noundef -2147483648)
  %13 = load i32, ptr @hf_r3_mfgsetserialnumber, align 4
  tail call fastcc void @dissect_serialnumber(ptr noundef %7, ptr noundef %3, ptr noundef nonnull %4, i32 noundef %13)
  br label %14

14:                                               ; preds = %.split, %.split13
  ret void
}